Certificate:
    Data:
        Version: 3 (0x2)
        Serial Number: 1 (0x1)
    Signature Algorithm: sha256WithRSAEncryption
        Issuer: C=SG, ST=Singapore, L=Singapore, O=Test, OU=Server, CN=127.0.0.1/emailAddress=server@xxx.com
        Validity
            Not Before: Feb 17 18:39:43 2018 GMT
            Not After : Feb 17 18:39:43 2019 GMT
        Subject: C=SG, ST=Singapore, L=Singapore, O=Test, OU=Client, CN=The Client/emailAddress=client@xxx.com
        Subject Public Key Info:
            Public Key Algorithm: rsaEncryption
                Public-Key: (2048 bit)
                Modulus:
                    00:b9:5d:24:c5:92:1b:cf:78:8d:e8:7e:f4:24:d3:
                    b4:f2:3e:5a:13:bc:ba:ab:f1:82:31:72:b4:1f:8d:
                    1c:c0:7e:ea:ff:91:29:df:fe:5b:47:59:e4:26:58:
                    b5:2d:01:ae:04:42:42:d4:c1:a6:e9:71:5d:39:dd:
                    a7:c3:eb:d5:2f:ea:49:76:fb:d8:fa:b0:d5:90:8f:
                    91:1d:83:fb:e4:c3:3a:7a:0b:22:3f:15:03:64:ff:
                    7b:11:72:79:f2:e8:a1:0d:e5:93:1a:0f:6f:37:95:
                    00:8c:f7:66:aa:b6:6b:9e:75:72:5c:8f:28:7c:c4:
                    50:d6:0e:5f:e3:83:57:71:f9:3f:ee:0a:a4:65:79:
                    1d:61:e5:88:e6:95:3d:fd:6b:56:0d:e8:94:8e:19:
                    de:c9:9d:89:d2:df:7f:62:d1:18:a8:f2:a6:80:68:
                    fd:39:ee:62:32:8f:a0:5f:3e:5f:48:4b:5a:a1:4f:
                    ed:0f:43:1e:c4:81:2f:31:5c:03:5d:32:f9:80:dd:
                    9c:5f:94:1d:b6:ee:96:72:b7:06:a2:b4:a5:6f:78:
                    66:65:0b:41:59:1e:e2:bd:7c:63:b5:3c:82:d4:8a:
                    5e:05:51:07:11:3a:76:72:2f:59:8d:02:0f:1e:af:
                    ff:c5:01:ad:81:ad:ab:2e:50:6c:c2:65:ed:ea:2e:
                    21:3b
                Exponent: 65537 (0x10001)
        X509v3 extensions:
            X509v3 Basic Constraints: 
                CA:FALSE
            Netscape Comment: 
                OpenSSL Generated Certificate
            X509v3 Subject Key Identifier: 
                D2:AB:6F:BE:5E:6E:DB:36:5D:9D:5D:AC:D2:17:5E:AD:E3:5B:C4:89
            X509v3 Authority Key Identifier: 
                keyid:17:F6:61:FE:BA:A0:9B:9A:B8:65:4A:BC:6B:BA:CA:8C:A2:B6:CA:14

    Signature Algorithm: sha256WithRSAEncryption
         a0:fa:41:f5:b1:86:25:39:51:4c:1f:79:3a:cd:b6:dd:a2:ca:
         9c:f4:98:1d:b4:7e:cb:96:d6:66:50:08:8f:29:8d:95:3e:83:
         c7:40:6b:7e:ec:b9:da:ec:d2:65:90:e0:e9:e7:8c:fd:67:90:
         1d:28:8d:6b:13:ec:e3:39:a4:c3:c8:4e:33:f3:20:c9:d2:71:
         f7:1c:ed:f5:1c:7a:0d:b3:a8:44:b6:28:e9:af:85:3a:45:37:
         cf:1c:1f:61:db:cb:e2:16:44:9b:65:a8:c9:f7:f9:c9:70:68:
         2f:f5:b1:b4:4a:62:2e:66:40:9e:9c:ac:25:1e:a7:55:6d:57:
         65:85:88:75:51:05:88:df:6b:99:3f:de:46:83:81:37:56:9d:
         b1:ba:a6:8b:cd:70:89:c8:e8:6b:83:45:9f:66:d8:dc:d2:21:
         75:f8:86:40:69:29:e1:4a:b5:44:ea:a3:cb:23:33:28:2e:fe:
         fa:7d:aa:d2:4b:9f:61:99:1c:ce:37:a7:50:85:f9:43:d8:57:
         b9:99:57:8c:0f:2f:50:00:69:e3:25:fc:ce:80:fd:83:b5:6d:
         e6:93:62:8e:9a:8f:9b:d5:a9:e2:d8:9a:f5:23:e7:55:25:fc:
         c3:c7:30:39:90:af:14:aa:c1:19:61:26:37:c4:41:93:be:6a:
         31:bf:94:f8
-----BEGIN CERTIFICATE-----
MIIECTCCAvGgAwIBAgIBATANBgkqhkiG9w0BAQsFADCBiDELMAkGA1UEBhMCU0cx
EjAQBgNVBAgMCVNpbmdhcG9yZTESMBAGA1UEBwwJU2luZ2Fwb3JlMQ0wCwYDVQQK
DARUZXN0MQ8wDQYDVQQLDAZTZXJ2ZXIxEjAQBgNVBAMMCTEyNy4wLjAuMTEdMBsG
CSqGSIb3DQEJARYOc2VydmVyQHh4eC5jb20wHhcNMTgwMjE3MTgzOTQzWhcNMTkw
MjE3MTgzOTQzWjCBiTELMAkGA1UEBhMCU0cxEjAQBgNVBAgMCVNpbmdhcG9yZTES
MBAGA1UEBwwJU2luZ2Fwb3JlMQ0wCwYDVQQKDARUZXN0MQ8wDQYDVQQLDAZDbGll
bnQxEzARBgNVBAMMClRoZSBDbGllbnQxHTAbBgkqhkiG9w0BCQEWDmNsaWVudEB4
eHguY29tMIIBIjANBgkqhkiG9w0BAQEFAAOCAQ8AMIIBCgKCAQEAuV0kxZIbz3iN
6H70JNO08j5aE7y6q/GCMXK0H40cwH7q/5Ep3/5bR1nkJli1LQGuBEJC1MGm6XFd
Od2nw+vVL+pJdvvY+rDVkI+RHYP75MM6egsiPxUDZP97EXJ58uihDeWTGg9vN5UA
jPdmqrZrnnVyXI8ofMRQ1g5f44NXcfk/7gqkZXkdYeWI5pU9/WtWDeiUjhneyZ2J
0t9/YtEYqPKmgGj9Oe5iMo+gXz5fSEtaoU/tD0MexIEvMVwDXTL5gN2cX5Qdtu6W
crcGorSlb3hmZQtBWR7ivXxjtTyC1IpeBVEHETp2ci9ZjQIPHq//xQGtga2rLlBs
wmXt6i4hOwIDAQABo3sweTAJBgNVHRMEAjAAMCwGCWCGSAGG+EIBDQQfFh1PcGVu
U1NMIEdlbmVyYXRlZCBDZXJ0aWZpY2F0ZTAdBgNVHQ4EFgQU0qtvvl5u2zZdnV2s
0hdereNbxIkwHwYDVR0jBBgwFoAUF/Zh/rqgm5q4ZUq8a7rKjKK2yhQwDQYJKoZI
hvcNAQELBQADggEBAKD6QfWxhiU5UUwfeTrNtt2iypz0mB20fsuW1mZQCI8pjZU+
g8dAa37sudrs0mWQ4OnnjP1nkB0ojWsT7OM5pMPITjPzIMnScfcc7fUceg2zqES2
KOmvhTpFN88cH2Hby+IWRJtlqMn3+clwaC/1sbRKYi5mQJ6crCUep1VtV2WFiHVR
BYjfa5k/3kaDgTdWnbG6povNcInI6GuDRZ9m2NzSIXX4hkBpKeFKtUTqo8sjMygu
/vp9qtJLn2GZHM43p1CF+UPYV7mZV4wPL1AAaeMl/M6A/YO1beaTYo6aj5vVqeLY
mvUj51Ul/MPHMDmQrxSqwRlhJjfEQZO+ajG/lPg=
-----END CERTIFICATE-----
